; Function Attrs: mustprogress nounwind uwtable
define internal noundef zeroext i1 @"_ZNSt17_Function_handlerIFbjRKN4llvm6ModuleEEZL17runThinLTOBackendRN5clang17DiagnosticsEngineEPNS0_18ModuleSummaryIndexEPS1_RKNS5_19HeaderSearchOptionsERKNS5_14CodeGenOptionsERKNS5_13TargetOptionsERKNS5_11LangOptionsESt10unique_ptrINS0_17raw_pwrite_streamESt14default_deleteISO_EENSt7__cxx1112basic_stringIcSt11char_traitsIcESaIcEEESX_NS5_13BackendActionEE3$_2E10_M_managerERSt9_Any_dataRKS11_St18_Manager_operation"(ptr noundef nonnull align 8 captures(none) dereferenceable(16) %0, ptr noundef nonnull readonly align 8 captures(none) dereferenceable(16) %1, i32 noundef %2) #0 align 2 {
  switch i32 %2, label %"_ZNSt14_Function_base13_Base_managerIZL17runThinLTOBackendRN5clang17DiagnosticsEngineEPN4llvm18ModuleSummaryIndexEPNS4_6ModuleERKNS1_19HeaderSearchOptionsERKNS1_14CodeGenOptionsERKNS1_13TargetOptionsERKNS1_11LangOptionsESt10unique_ptrINS4_17raw_pwrite_streamESt14default_deleteISM_EENSt7__cxx1112basic_stringIcSt11char_traitsIcESaIcEEESV_NS1_13BackendActionEE3$_2E10_M_managerERSt9_Any_dataRKSZ_St18_Manager_operation.exit" [
    i32 1, label %4
    i32 0, label %5
    i32 3, label %8
    i32 2, label %6
  ]

4:                                                ; preds = %3
  %.val = load ptr, ptr %1, align 8
  store ptr %.val, ptr %0, align 8
  br label %"_ZNSt14_Function_base13_Base_managerIZL17runThinLTOBackendRN5clang17DiagnosticsEngineEPN4llvm18ModuleSummaryIndexEPNS4_6ModuleERKNS1_19HeaderSearchOptionsERKNS1_14CodeGenOptionsERKNS1_13TargetOptionsERKNS1_11LangOptionsESt10unique_ptrINS4_17raw_pwrite_streamESt14default_deleteISM_EENSt7__cxx1112basic_stringIcSt11char_traitsIcESaIcEEESV_NS1_13BackendActionEE3$_2E10_M_managerERSt9_Any_dataRKSZ_St18_Manager_operation.exit"

5:                                                ; preds = %3
  store ptr null, ptr %0, align 8
  br label %"_ZNSt14_Function_base13_Base_managerIZL17runThinLTOBackendRN5clang17DiagnosticsEngineEPN4llvm18ModuleSummaryIndexEPNS4_6ModuleERKNS1_19HeaderSearchOptionsERKNS1_14CodeGenOptionsERKNS1_13TargetOptionsERKNS1_11LangOptionsESt10unique_ptrINS4_17raw_pwrite_streamESt14default_deleteISM_EENSt7__cxx1112basic_stringIcSt11char_traitsIcESaIcEEESV_NS1_13BackendActionEE3$_2E10_M_managerERSt9_Any_dataRKSZ_St18_Manager_operation.exit"

6:                                                ; preds = %3
  %.val5 = load ptr, ptr %1, align 8
  %7 = tail call noalias noundef nonnull dereferenceable(24) ptr @_Znwm(i64 noundef 24) #23
  tail call void @llvm.memcpy.p0.p0.i64(ptr noundef nonnull align 16 dereferenceable(24) %7, ptr noundef nonnull readonly align 8 dereferenceable(24) %.val5, i64 24, i1 false)
  store ptr %7, ptr %0, align 8
  br label %"_ZNSt14_Function_base13_Base_managerIZL17runThinLTOBackendRN5clang17DiagnosticsEngineEPN4llvm18ModuleSummaryIndexEPNS4_6ModuleERKNS1_19HeaderSearchOptionsERKNS1_14CodeGenOptionsERKNS1_13TargetOptionsERKNS1_11LangOptionsESt10unique_ptrINS4_17raw_pwrite_streamESt14default_deleteISM_EENSt7__cxx1112basic_stringIcSt11char_traitsIcESaIcEEESV_NS1_13BackendActionEE3$_2E10_M_managerERSt9_Any_dataRKSZ_St18_Manager_operation.exit"

8:                                                ; preds = %3
  %.val6.i = load ptr, ptr %0, align 8
  %9 = icmp eq ptr %.val6.i, null
  br i1 %9, label %"_ZNSt14_Function_base13_Base_managerIZL17runThinLTOBackendRN5clang17DiagnosticsEngineEPN4llvm18ModuleSummaryIndexEPNS4_6ModuleERKNS1_19HeaderSearchOptionsERKNS1_14CodeGenOptionsERKNS1_13TargetOptionsERKNS1_11LangOptionsESt10unique_ptrINS4_17raw_pwrite_streamESt14default_deleteISM_EENSt7__cxx1112basic_stringIcSt11char_traitsIcESaIcEEESV_NS1_13BackendActionEE3$_2E10_M_managerERSt9_Any_dataRKSZ_St18_Manager_operation.exit", label %10

10:                                               ; preds = %8
  tail call void @_ZdlPvm(ptr noundef nonnull %.val6.i, i64 noundef 24) #24
  br label %"_ZNSt14_Function_base13_Base_managerIZL17runThinLTOBackendRN5clang17DiagnosticsEngineEPN4llvm18ModuleSummaryIndexEPNS4_6ModuleERKNS1_19HeaderSearchOptionsERKNS1_14CodeGenOptionsERKNS1_13TargetOptionsERKNS1_11LangOptionsESt10unique_ptrINS4_17raw_pwrite_streamESt14default_deleteISM_EENSt7__cxx1112basic_stringIcSt11char_traitsIcESaIcEEESV_NS1_13BackendActionEE3$_2E10_M_managerERSt9_Any_dataRKSZ_St18_Manager_operation.exit"

"_ZNSt14_Function_base13_Base_managerIZL17runThinLTOBackendRN5clang17DiagnosticsEngineEPN4llvm18ModuleSummaryIndexEPNS4_6ModuleERKNS1_19HeaderSearchOptionsERKNS1_14CodeGenOptionsERKNS1_13TargetOptionsERKNS1_11LangOptionsESt10unique_ptrINS4_17raw_pwrite_streamESt14default_deleteISM_EENSt7__cxx1112basic_stringIcSt11char_traitsIcESaIcEEESV_NS1_13BackendActionEE3$_2E10_M_managerERSt9_Any_dataRKSZ_St18_Manager_operation.exit": ; preds = %3, %10, %8, %6, %5, %4
  ret i1 false
}